target datalayout = "e-m:e-p270:32:32-p271:32:32-p272:64:64-i64:64-i128:128-f80:128-n8:16:32:64-S128"
target triple = "x86_64-pc-linux-gnu"

@.str.7 = private unnamed_addr constant [5 x i8] c"size\00", align 1

; Function Attrs: nounwind uwtable
define internal i32 @kdf_pkcs12_get_ctx_params(ptr noundef %0, ptr noundef %1) #0 {
  %3 = alloca i32, align 4
  %4 = alloca ptr, align 8
  %5 = alloca ptr, align 8
  %6 = alloca ptr, align 8
  %7 = alloca i32, align 4
  store ptr %0, ptr %4, align 8, !tbaa !3
  store ptr %1, ptr %5, align 8, !tbaa !23
  call void @llvm.lifetime.start.p0(i64 8, ptr %6) #6
  %8 = load ptr, ptr %5, align 8, !tbaa !23
  %9 = call ptr @OSSL_PARAM_locate(ptr noundef %8, ptr noundef @.str.7)
  store ptr %9, ptr %6, align 8, !tbaa !23
  %10 = icmp ne ptr %9, null
  br i1 %10, label %11, label %14

11:                                               ; preds = %2
  %12 = load ptr, ptr %6, align 8, !tbaa !23
  %13 = call i32 @OSSL_PARAM_set_size_t(ptr noundef %12, i64 noundef -1)
  store i32 %13, ptr %3, align 4
  store i32 1, ptr %7, align 4
  br label %15

14:                                               ; preds = %2
  store i32 -2, ptr %3, align 4
  store i32 1, ptr %7, align 4
  br label %15

15:                                               ; preds = %14, %11
  call void @llvm.lifetime.end.p0(i64 8, ptr %6) #6
  %16 = load i32, ptr %3, align 4
  ret i32 %16
}